; Function Attrs: inlinehint mustprogress uwtable
define internal void @"_ZN4pbrt4$_128__invokeENS_6Point2IiEEiRNS_21PixelStatsAccumulatorE"(i64 %0, i32 noundef %1, ptr noundef nonnull align 8 dereferenceable(8) %2) #11 align 2 {
  %4 = tail call align 8 ptr @llvm.threadlocal.address.p0(ptr align 8 @_ZN4pbrtL15bvhNodesVisitedE)
  %5 = load i64, ptr %4, align 8, !tbaa !49
  tail call void @_ZN4pbrt21PixelStatsAccumulator13ReportCounterENS_6Point2IiEEiPKcl(ptr noundef nonnull align 8 dereferenceable(8) %2, i64 %0, i32 noundef %1, ptr noundef nonnull @.str.67, i64 noundef %5)
  %6 = load i64, ptr %4, align 8, !tbaa !49
  %7 = tail call align 8 ptr @llvm.threadlocal.address.p0(ptr align 8 @_ZN4pbrtL18bvhNodesVisitedSumE)
  %8 = load i64, ptr %7, align 8, !tbaa !49
  %9 = add nsw i64 %8, %6
  store i64 %9, ptr %7, align 8, !tbaa !49
  store i64 0, ptr %4, align 8, !tbaa !49
  ret void
}